; Function Attrs: nounwind uwtable
define internal fastcc ptr @_init_l_Lean_Server_FileWorker_initFn____x40_Lean_Server_FileWorker___hyg_753____closed__9() unnamed_addr #0 {
  %1 = load ptr, ptr @l_Lean_Server_FileWorker_initFn____x40_Lean_Server_FileWorker___hyg_753____closed__6, align 8, !tbaa !4
  %2 = load ptr, ptr @l_Lean_Server_FileWorker_initFn____x40_Lean_Server_FileWorker___hyg_753____closed__7, align 8, !tbaa !4
  %3 = load ptr, ptr @l_Lean_Server_FileWorker_initFn____x40_Lean_Server_FileWorker___hyg_753____closed__8, align 8, !tbaa !4
  %4 = load ptr, ptr @l_Lean_Server_FileWorker_initFn____x40_Lean_Server_FileWorker___hyg_753____closed__1, align 8, !tbaa !4
  %5 = load ptr, ptr @l_Lean_Server_FileWorker_initFn____x40_Lean_Server_FileWorker___hyg_753____closed__2, align 8, !tbaa !4
  %6 = tail call ptr @l_Lean_Name_mkStr5(ptr noundef %1, ptr noundef %2, ptr noundef %3, ptr noundef %4, ptr noundef %5) #7
  ret ptr %6
}